target datalayout = "e-m:e-p270:32:32-p271:32:32-p272:64:64-i64:64-i128:128-f80:128-n8:16:32:64-S128"
target triple = "x86_64-pc-linux-gnu"

%"class.std::__cxx11::basic_string" = type { %"struct.std::__cxx11::basic_string<char>::_Alloc_hider", i64, %union.anon }
%"struct.std::__cxx11::basic_string<char>::_Alloc_hider" = type { ptr }
%union.anon = type { i64, [8 x i8] }
%"class.cmsys::RegularExpression" = type <{ %"class.cmsys::RegularExpressionMatch", i8, i8, [6 x i8], ptr, i64, ptr, i32, [4 x i8] }>
%"class.cmsys::RegularExpressionMatch" = type { [32 x ptr], [32 x ptr], ptr }
%"class.std::set" = type { %"class.std::_Rb_tree.13" }
%"class.std::_Rb_tree.13" = type { %"struct.std::_Rb_tree<std::__cxx11::basic_string<char>, std::__cxx11::basic_string<char>, std::_Identity<std::__cxx11::basic_string<char>>, std::less<std::__cxx11::basic_string<char>>>::_Rb_tree_impl" }
%"struct.std::_Rb_tree<std::__cxx11::basic_string<char>, std::__cxx11::basic_string<char>, std::_Identity<std::__cxx11::basic_string<char>>, std::less<std::__cxx11::basic_string<char>>>::_Rb_tree_impl" = type { %"struct.std::_Rb_tree_key_compare", %"struct.std::_Rb_tree_header" }
%"struct.std::_Rb_tree_key_compare" = type { %"struct.std::less" }
%"struct.std::less" = type { i8 }
%"struct.std::_Rb_tree_header" = type { %"struct.std::_Rb_tree_node_base", i64 }
%"struct.std::_Rb_tree_node_base" = type { i32, ptr, ptr, ptr }
%class.cmOrderDirectories = type { ptr, ptr, %"class.std::__cxx11::basic_string", %"class.std::vector.110", %"class.std::vector.166", %"class.std::vector.166", %"class.std::vector.110", %"class.std::vector.110", %"class.cmsys::RegularExpression", %"class.std::vector.110", %"class.std::set", %"class.std::set", %"class.std::set", %"class.std::vector.110", %"class.std::map.92", %"class.std::vector.171", i32, i8, i8, %"class.std::vector.176", %"class.std::map.27" }
%"class.std::vector.166" = type { %"struct.std::_Vector_base.167" }
%"struct.std::_Vector_base.167" = type { %"struct.std::_Vector_base<std::unique_ptr<cmOrderDirectoriesConstraint>, std::allocator<std::unique_ptr<cmOrderDirectoriesConstraint>>>::_Vector_impl" }
%"struct.std::_Vector_base<std::unique_ptr<cmOrderDirectoriesConstraint>, std::allocator<std::unique_ptr<cmOrderDirectoriesConstraint>>>::_Vector_impl" = type { %"struct.std::_Vector_base<std::unique_ptr<cmOrderDirectoriesConstraint>, std::allocator<std::unique_ptr<cmOrderDirectoriesConstraint>>>::_Vector_impl_data" }
%"struct.std::_Vector_base<std::unique_ptr<cmOrderDirectoriesConstraint>, std::allocator<std::unique_ptr<cmOrderDirectoriesConstraint>>>::_Vector_impl_data" = type { ptr, ptr, ptr }
%"class.std::vector.110" = type { %"struct.std::_Vector_base.111" }
%"struct.std::_Vector_base.111" = type { %"struct.std::_Vector_base<std::__cxx11::basic_string<char>, std::allocator<std::__cxx11::basic_string<char>>>::_Vector_impl" }
%"struct.std::_Vector_base<std::__cxx11::basic_string<char>, std::allocator<std::__cxx11::basic_string<char>>>::_Vector_impl" = type { %"struct.std::_Vector_base<std::__cxx11::basic_string<char>, std::allocator<std::__cxx11::basic_string<char>>>::_Vector_impl_data" }
%"struct.std::_Vector_base<std::__cxx11::basic_string<char>, std::allocator<std::__cxx11::basic_string<char>>>::_Vector_impl_data" = type { ptr, ptr, ptr }
%"class.std::map.92" = type { %"class.std::_Rb_tree.93" }
%"class.std::_Rb_tree.93" = type { %"struct.std::_Rb_tree<std::__cxx11::basic_string<char>, std::pair<const std::__cxx11::basic_string<char>, int>, std::_Select1st<std::pair<const std::__cxx11::basic_string<char>, int>>, std::less<std::__cxx11::basic_string<char>>>::_Rb_tree_impl" }
%"struct.std::_Rb_tree<std::__cxx11::basic_string<char>, std::pair<const std::__cxx11::basic_string<char>, int>, std::_Select1st<std::pair<const std::__cxx11::basic_string<char>, int>>, std::less<std::__cxx11::basic_string<char>>>::_Rb_tree_impl" = type { %"struct.std::_Rb_tree_key_compare", %"struct.std::_Rb_tree_header" }
%"class.std::vector.171" = type { %"struct.std::_Vector_base.172" }
%"struct.std::_Vector_base.172" = type { %"struct.std::_Vector_base<int, std::allocator<int>>::_Vector_impl" }
%"struct.std::_Vector_base<int, std::allocator<int>>::_Vector_impl" = type { %"struct.std::_Vector_base<int, std::allocator<int>>::_Vector_impl_data" }
%"struct.std::_Vector_base<int, std::allocator<int>>::_Vector_impl_data" = type { ptr, ptr, ptr }
%"class.std::vector.176" = type { %"struct.std::_Vector_base.177" }
%"struct.std::_Vector_base.177" = type { %"struct.std::_Vector_base<cmOrderDirectories::ConflictList, std::allocator<cmOrderDirectories::ConflictList>>::_Vector_impl" }
%"struct.std::_Vector_base<cmOrderDirectories::ConflictList, std::allocator<cmOrderDirectories::ConflictList>>::_Vector_impl" = type { %"struct.std::_Vector_base<cmOrderDirectories::ConflictList, std::allocator<cmOrderDirectories::ConflictList>>::_Vector_impl_data" }
%"struct.std::_Vector_base<cmOrderDirectories::ConflictList, std::allocator<cmOrderDirectories::ConflictList>>::_Vector_impl_data" = type { ptr, ptr, ptr }
%"class.std::map.27" = type { %"class.std::_Rb_tree.28" }
%"class.std::_Rb_tree.28" = type { %"struct.std::_Rb_tree<std::__cxx11::basic_string<char>, std::pair<const std::__cxx11::basic_string<char>, std::__cxx11::basic_string<char>>, std::_Select1st<std::pair<const std::__cxx11::basic_string<char>, std::__cxx11::basic_string<char>>>, std::less<std::__cxx11::basic_string<char>>>::_Rb_tree_impl" }
%"struct.std::_Rb_tree<std::__cxx11::basic_string<char>, std::pair<const std::__cxx11::basic_string<char>, std::__cxx11::basic_string<char>>, std::_Select1st<std::pair<const std::__cxx11::basic_string<char>, std::__cxx11::basic_string<char>>>, std::less<std::__cxx11::basic_string<char>>>::_Rb_tree_impl" = type { %"struct.std::_Rb_tree_key_compare", %"struct.std::_Rb_tree_header" }

; Function Attrs: mustprogress nounwind uwtable
define linkonce_odr dso_local noundef i64 @_ZNKSt6vectorINSt7__cxx1112basic_stringIcSt11char_traitsIcESaIcEEESaIS5_EE4sizeEv(ptr noundef nonnull align 8 dereferenceable(24) %0) #5 comdat align 2 {
  %2 = alloca ptr, align 8
  store ptr %0, ptr %2, align 8
  %3 = load ptr, ptr %2, align 8
  %4 = getelementptr inbounds %"struct.std::_Vector_base.111", ptr %3, i32 0, i32 0
  %5 = getelementptr inbounds %"struct.std::_Vector_base<std::__cxx11::basic_string<char>, std::allocator<std::__cxx11::basic_string<char>>>::_Vector_impl_data", ptr %4, i32 0, i32 1
  %6 = load ptr, ptr %5, align 8
  %7 = getelementptr inbounds %"struct.std::_Vector_base.111", ptr %3, i32 0, i32 0
  %8 = getelementptr inbounds %"struct.std::_Vector_base<std::__cxx11::basic_string<char>, std::allocator<std::__cxx11::basic_string<char>>>::_Vector_impl_data", ptr %7, i32 0, i32 0
  %9 = load ptr, ptr %8, align 8
  %10 = ptrtoint ptr %6 to i64
  %11 = ptrtoint ptr %9 to i64
  %12 = sub i64 %10, %11
  %13 = sdiv exact i64 %12, 32
  ret i64 %13
}

; Function Attrs: mustprogress uwtable
define dso_local void @_ZN18cmOrderDirectories16OrderDirectoriesEv(ptr noundef nonnull align 8 dereferenceable(1072) %0) #4 align 2 {
  %2 = alloca ptr, align 8
  %3 = alloca i32, align 4
  store ptr %0, ptr %2, align 8
  %4 = load ptr, ptr %2, align 8
  %5 = getelementptr inbounds %class.cmOrderDirectories, ptr %4, i32 0, i32 17
  store i8 0, ptr %5, align 4
  %6 = getelementptr inbounds %class.cmOrderDirectories, ptr %4, i32 0, i32 16
  store i32 0, ptr %6, align 8
  store i32 0, ptr %3, align 4
  br label %7

7:                                                ; preds = %18, %1
  %8 = load i32, ptr %3, align 4
  %9 = zext i32 %8 to i64
  %10 = getelementptr inbounds %class.cmOrderDirectories, ptr %4, i32 0, i32 13
  %11 = call noundef i64 @_ZNKSt6vectorINSt7__cxx1112basic_stringIcSt11char_traitsIcESaIcEEESaIS5_EE4sizeEv(ptr noundef nonnull align 8 dereferenceable(24) %10) #3
  %12 = icmp ult i64 %9, %11
  br i1 %12, label %13, label %21

13:                                               ; preds = %7
  %14 = getelementptr inbounds %class.cmOrderDirectories, ptr %4, i32 0, i32 16
  %15 = load i32, ptr %14, align 8
  %16 = add nsw i32 %15, 1
  store i32 %16, ptr %14, align 8
  %17 = load i32, ptr %3, align 4
  call void @_ZN18cmOrderDirectories14VisitDirectoryEj(ptr noundef nonnull align 8 dereferenceable(1072) %4, i32 noundef %17)
  br label %18

18:                                               ; preds = %13
  %19 = load i32, ptr %3, align 4
  %20 = add i32 %19, 1
  store i32 %20, ptr %3, align 4
  br label %7, !llvm.loop !7

21:                                               ; preds = %7
  ret void
}