; Function Attrs: mustprogress uwtable
define dso_local void @_ZN18cmOrderDirectories16OrderDirectoriesEv(ptr noundef nonnull align 8 dereferenceable(1072) %0) local_unnamed_addr #3 align 2 {
  %2 = getelementptr inbounds i8, ptr %0, i64 996
  store i8 0, ptr %2, align 4
  %3 = getelementptr inbounds i8, ptr %0, i64 992
  store i32 0, ptr %3, align 8
  %4 = getelementptr inbounds i8, ptr %0, i64 896
  %5 = getelementptr inbounds i8, ptr %0, i64 904
  %6 = load ptr, ptr %5, align 8
  %7 = load ptr, ptr %4, align 8
  %.not = icmp eq ptr %6, %7
  br i1 %.not, label %._crit_edge, label %.lr.ph

.lr.ph:                                           ; preds = %1, %.lr.ph
  %.03 = phi i32 [ %10, %.lr.ph ], [ 0, %1 ]
  %8 = load i32, ptr %3, align 8
  %9 = add nsw i32 %8, 1
  store i32 %9, ptr %3, align 8
  tail call void @_ZN18cmOrderDirectories14VisitDirectoryEj(ptr noundef nonnull align 8 dereferenceable(1072) %0, i32 noundef %.03)
  %10 = add i32 %.03, 1
  %11 = zext i32 %10 to i64
  %12 = load ptr, ptr %5, align 8
  %13 = load ptr, ptr %4, align 8
  %14 = ptrtoint ptr %12 to i64
  %15 = ptrtoint ptr %13 to i64
  %16 = sub i64 %14, %15
  %17 = ashr exact i64 %16, 5
  %18 = icmp ugt i64 %17, %11
  br i1 %18, label %.lr.ph, label %._crit_edge, !llvm.loop !44

._crit_edge:                                      ; preds = %.lr.ph, %1
  ret void
}